; Function Attrs: nounwind uwtable
define hidden void @zim_SplPriorityQueue_top(ptr nocapture noundef readonly %0, ptr noundef %1) #0 {
  %3 = getelementptr inbounds i8, ptr %0, i64 44
  %4 = load i32, ptr %3, align 4
  %.not = icmp eq i32 %4, 0
  br i1 %.not, label %.critedge, label %5

5:                                                ; preds = %2
  tail call void @zend_wrong_parameters_none_error() #14
  %6 = load ptr, ptr getelementptr inbounds (%struct._zend_executor_globals, ptr @executor_globals, i64 0, i32 50), align 8
  %7 = icmp ne ptr %6, null
  tail call void @llvm.assume(i1 %7)
  br label %32

.critedge:                                        ; preds = %2
  %8 = getelementptr inbounds i8, ptr %0, i64 32
  %9 = load ptr, ptr %8, align 8
  %10 = getelementptr inbounds i8, ptr %9, i64 -32
  %11 = load ptr, ptr %10, align 8
  %12 = getelementptr inbounds i8, ptr %11, i64 36
  %13 = load i32, ptr %12, align 4
  %14 = and i32 %13, 1
  %.not8 = icmp eq i32 %14, 0
  br i1 %.not8, label %20, label %15

15:                                               ; preds = %.critedge
  %16 = load ptr, ptr @spl_ce_RuntimeException, align 8
  %17 = tail call ptr @zend_throw_exception(ptr noundef %16, ptr noundef nonnull @.str, i64 noundef 0) #14
  %18 = load ptr, ptr getelementptr inbounds (%struct._zend_executor_globals, ptr @executor_globals, i64 0, i32 50), align 8
  %19 = icmp ne ptr %18, null
  tail call void @llvm.assume(i1 %19)
  br label %32

20:                                               ; preds = %.critedge
  %21 = getelementptr inbounds i8, ptr %11, i64 32
  %22 = load i32, ptr %21, align 8
  %23 = icmp eq i32 %22, 0
  br i1 %23, label %spl_ptr_heap_top.exit.thread, label %spl_ptr_heap_top.exit

spl_ptr_heap_top.exit:                            ; preds = %20
  %24 = load ptr, ptr %11, align 8
  %.not9 = icmp eq ptr %24, null
  br i1 %.not9, label %spl_ptr_heap_top.exit.thread, label %29

spl_ptr_heap_top.exit.thread:                     ; preds = %20, %spl_ptr_heap_top.exit
  %25 = load ptr, ptr @spl_ce_RuntimeException, align 8
  %26 = tail call ptr @zend_throw_exception(ptr noundef %25, ptr noundef nonnull @.str.2, i64 noundef 0) #14
  %27 = load ptr, ptr getelementptr inbounds (%struct._zend_executor_globals, ptr @executor_globals, i64 0, i32 50), align 8
  %28 = icmp ne ptr %27, null
  tail call void @llvm.assume(i1 %28)
  br label %32

29:                                               ; preds = %spl_ptr_heap_top.exit
  %30 = getelementptr inbounds i8, ptr %9, i64 -24
  %31 = load i32, ptr %30, align 8
  tail call fastcc void @spl_pqueue_extract_helper(ptr noundef %1, ptr noundef nonnull %24, i32 noundef %31)
  br label %32

32:                                               ; preds = %29, %spl_ptr_heap_top.exit.thread, %15, %5
  ret void
}